ARM GAS  /tmp/ccG94fOb.s 			page 1


   1              		.syntax unified
   2              		.cpu cortex-m4
   3              		.eabi_attribute 27, 1
   4              		.eabi_attribute 28, 1
   5              		.fpu fpv4-sp-d16
   6              		.eabi_attribute 20, 1
   7              		.eabi_attribute 21, 1
   8              		.eabi_attribute 23, 3
   9              		.eabi_attribute 24, 1
  10              		.eabi_attribute 25, 1
  11              		.eabi_attribute 26, 1
  12              		.eabi_attribute 30, 1
  13              		.eabi_attribute 34, 1
  14              		.eabi_attribute 18, 4
  15              		.thumb
  16              		.syntax unified
  17              		.file	"main.c"
  18              		.text
  19              	.Ltext0:
  20              		.cfi_sections	.debug_frame
  21              		.section	.text.MX_GPIO_Init,"ax",%progbits
  22              		.align	2
  23              		.thumb
  24              		.thumb_func
  26              	MX_GPIO_Init:
  27              	.LFB126:
  28              		.file 1 "Src/main.c"
   1:Src/main.c    **** 
   2:Src/main.c    **** /**
   3:Src/main.c    ****   ******************************************************************************
   4:Src/main.c    ****   * @file           : main.c
   5:Src/main.c    ****   * @brief          : Main program body
   6:Src/main.c    ****   ******************************************************************************
   7:Src/main.c    ****   ** This notice applies to any and all portions of this file
   8:Src/main.c    ****   * that are not between comment pairs USER CODE BEGIN and
   9:Src/main.c    ****   * USER CODE END. Other portions of this file, whether 
  10:Src/main.c    ****   * inserted by the user or by software development tools
  11:Src/main.c    ****   * are owned by their respective copyright owners.
  12:Src/main.c    ****   *
  13:Src/main.c    ****   * COPYRIGHT(c) 2018 STMicroelectronics
  14:Src/main.c    ****   *
  15:Src/main.c    ****   * Redistribution and use in source and binary forms, with or without modification,
  16:Src/main.c    ****   * are permitted provided that the following conditions are met:
  17:Src/main.c    ****   *   1. Redistributions of source code must retain the above copyright notice,
  18:Src/main.c    ****   *      this list of conditions and the following disclaimer.
  19:Src/main.c    ****   *   2. Redistributions in binary form must reproduce the above copyright notice,
  20:Src/main.c    ****   *      this list of conditions and the following disclaimer in the documentation
  21:Src/main.c    ****   *      and/or other materials provided with the distribution.
  22:Src/main.c    ****   *   3. Neither the name of STMicroelectronics nor the names of its contributors
  23:Src/main.c    ****   *      may be used to endorse or promote products derived from this software
  24:Src/main.c    ****   *      without specific prior written permission.
  25:Src/main.c    ****   *
  26:Src/main.c    ****   * THIS SOFTWARE IS PROVIDED BY THE COPYRIGHT HOLDERS AND CONTRIBUTORS "AS IS"
  27:Src/main.c    ****   * AND ANY EXPRESS OR IMPLIED WARRANTIES, INCLUDING, BUT NOT LIMITED TO, THE
  28:Src/main.c    ****   * IMPLIED WARRANTIES OF MERCHANTABILITY AND FITNESS FOR A PARTICULAR PURPOSE ARE
  29:Src/main.c    ****   * DISCLAIMED. IN NO EVENT SHALL THE COPYRIGHT HOLDER OR CONTRIBUTORS BE LIABLE
  30:Src/main.c    ****   * FOR ANY DIRECT, INDIRECT, INCIDENTAL, SPECIAL, EXEMPLARY, OR CONSEQUENTIAL
ARM GAS  /tmp/ccG94fOb.s 			page 2


  31:Src/main.c    ****   * DAMAGES (INCLUDING, BUT NOT LIMITED TO, PROCUREMENT OF SUBSTITUTE GOODS OR
  32:Src/main.c    ****   * SERVICES; LOSS OF USE, DATA, OR PROFITS; OR BUSINESS INTERRUPTION) HOWEVER
  33:Src/main.c    ****   * CAUSED AND ON ANY THEORY OF LIABILITY, WHETHER IN CONTRACT, STRICT LIABILITY,
  34:Src/main.c    ****   * OR TORT (INCLUDING NEGLIGENCE OR OTHERWISE) ARISING IN ANY WAY OUT OF THE USE
  35:Src/main.c    ****   * OF THIS SOFTWARE, EVEN IF ADVISED OF THE POSSIBILITY OF SUCH DAMAGE.
  36:Src/main.c    ****   *
  37:Src/main.c    ****   ******************************************************************************
  38:Src/main.c    ****   */
  39:Src/main.c    **** /* Includes ------------------------------------------------------------------*/
  40:Src/main.c    **** #include "main.h"
  41:Src/main.c    **** #include "stm32f4xx_hal.h"
  42:Src/main.c    **** 
  43:Src/main.c    **** /* USER CODE BEGIN Includes */
  44:Src/main.c    **** 
  45:Src/main.c    **** /* USER CODE END Includes */
  46:Src/main.c    **** 
  47:Src/main.c    **** /* Private variables ---------------------------------------------------------*/
  48:Src/main.c    **** 
  49:Src/main.c    **** /* USER CODE BEGIN PV */
  50:Src/main.c    **** /* Private variables ---------------------------------------------------------*/
  51:Src/main.c    **** 
  52:Src/main.c    **** /* USER CODE END PV */
  53:Src/main.c    **** 
  54:Src/main.c    **** /* Private function prototypes -----------------------------------------------*/
  55:Src/main.c    **** void SystemClock_Config(void);
  56:Src/main.c    **** static void MX_GPIO_Init(void);
  57:Src/main.c    **** 
  58:Src/main.c    **** /* USER CODE BEGIN PFP */
  59:Src/main.c    **** /* Private function prototypes -----------------------------------------------*/
  60:Src/main.c    **** 
  61:Src/main.c    **** /* USER CODE END PFP */
  62:Src/main.c    **** 
  63:Src/main.c    **** /* USER CODE BEGIN 0 */
  64:Src/main.c    **** 
  65:Src/main.c    **** /* USER CODE END 0 */
  66:Src/main.c    **** 
  67:Src/main.c    **** /**
  68:Src/main.c    ****   * @brief  The application entry point.
  69:Src/main.c    ****   *
  70:Src/main.c    ****   * @retval None
  71:Src/main.c    ****   */
  72:Src/main.c    **** int main(void)
  73:Src/main.c    **** {
  74:Src/main.c    ****   /* USER CODE BEGIN 1 */
  75:Src/main.c    **** 
  76:Src/main.c    ****   /* USER CODE END 1 */
  77:Src/main.c    **** 
  78:Src/main.c    ****   /* MCU Configuration----------------------------------------------------------*/
  79:Src/main.c    **** 
  80:Src/main.c    ****   /* Reset of all peripherals, Initializes the Flash interface and the Systick. */
  81:Src/main.c    ****   HAL_Init();
  82:Src/main.c    **** 
  83:Src/main.c    ****   /* USER CODE BEGIN Init */
  84:Src/main.c    **** 
  85:Src/main.c    ****   /* USER CODE END Init */
  86:Src/main.c    **** 
  87:Src/main.c    ****   /* Configure the system clock */
ARM GAS  /tmp/ccG94fOb.s 			page 3


  88:Src/main.c    ****   SystemClock_Config();
  89:Src/main.c    **** 
  90:Src/main.c    ****   /* USER CODE BEGIN SysInit */
  91:Src/main.c    **** 
  92:Src/main.c    ****   /* USER CODE END SysInit */
  93:Src/main.c    **** 
  94:Src/main.c    ****   /* Initialize all configured peripherals */
  95:Src/main.c    ****   MX_GPIO_Init();
  96:Src/main.c    ****   /* USER CODE BEGIN 2 */
  97:Src/main.c    **** 
  98:Src/main.c    ****   /* USER CODE END 2 */
  99:Src/main.c    **** 
 100:Src/main.c    ****   /* Infinite loop */
 101:Src/main.c    ****   /* USER CODE BEGIN WHILE */
 102:Src/main.c    ****   while (1)
 103:Src/main.c    ****   {
 104:Src/main.c    **** 
 105:Src/main.c    ****   /* USER CODE END WHILE */
 106:Src/main.c    ****   	HAL_GPIO_WritePin(GPIOF, GPIO_PIN_10, GPIO_PIN_SET);
 107:Src/main.c    **** 		HAL_Delay(500);
 108:Src/main.c    **** 		HAL_GPIO_WritePin(GPIOF, GPIO_PIN_10, GPIO_PIN_RESET);
 109:Src/main.c    **** 		HAL_Delay(500);
 110:Src/main.c    **** 
 111:Src/main.c    ****   /* USER CODE BEGIN 3 */
 112:Src/main.c    **** 
 113:Src/main.c    ****   }
 114:Src/main.c    ****   /* USER CODE END 3 */
 115:Src/main.c    **** 
 116:Src/main.c    **** }
 117:Src/main.c    **** 
 118:Src/main.c    **** /**
 119:Src/main.c    ****   * @brief System Clock Configuration
 120:Src/main.c    ****   * @retval None
 121:Src/main.c    ****   */
 122:Src/main.c    **** void SystemClock_Config(void)
 123:Src/main.c    **** {
 124:Src/main.c    **** 
 125:Src/main.c    ****   // RCC_OscInitTypeDef RCC_OscInitStruct;
 126:Src/main.c    ****   // RCC_ClkInitTypeDef RCC_ClkInitStruct;
 127:Src/main.c    **** 
 128:Src/main.c    ****   //   /**Configure the main internal regulator output voltage 
 129:Src/main.c    ****   //   */
 130:Src/main.c    ****   // __HAL_RCC_PWR_CLK_ENABLE();
 131:Src/main.c    **** 
 132:Src/main.c    ****   // __HAL_PWR_VOLTAGESCALING_CONFIG(PWR_REGULATOR_VOLTAGE_SCALE1);
 133:Src/main.c    **** 
 134:Src/main.c    ****   //   /**Initializes the CPU, AHB and APB busses clocks 
 135:Src/main.c    ****   //   */
 136:Src/main.c    ****   // RCC_OscInitStruct.OscillatorType = RCC_OSCILLATORTYPE_HSE;
 137:Src/main.c    ****   // RCC_OscInitStruct.HSEState = RCC_HSE_ON;
 138:Src/main.c    ****   // RCC_OscInitStruct.PLL.PLLState = RCC_PLL_ON;
 139:Src/main.c    ****   // RCC_OscInitStruct.PLL.PLLSource = RCC_PLLSOURCE_HSE;
 140:Src/main.c    ****   // RCC_OscInitStruct.PLL.PLLM = 8;
 141:Src/main.c    ****   // RCC_OscInitStruct.PLL.PLLN = 336;
 142:Src/main.c    ****   // RCC_OscInitStruct.PLL.PLLP = RCC_PLLP_DIV2;
 143:Src/main.c    ****   // RCC_OscInitStruct.PLL.PLLQ = 4;
 144:Src/main.c    ****   // if (HAL_RCC_OscConfig(&RCC_OscInitStruct) != HAL_OK)
ARM GAS  /tmp/ccG94fOb.s 			page 4


 145:Src/main.c    ****   // {
 146:Src/main.c    ****   //   _Error_Handler(__FILE__, __LINE__);
 147:Src/main.c    ****   // }
 148:Src/main.c    **** 
 149:Src/main.c    ****   //   /**Initializes the CPU, AHB and APB busses clocks 
 150:Src/main.c    ****   //   */
 151:Src/main.c    ****   // RCC_ClkInitStruct.ClockType = RCC_CLOCKTYPE_HCLK|RCC_CLOCKTYPE_SYSCLK
 152:Src/main.c    ****   //                             |RCC_CLOCKTYPE_PCLK1|RCC_CLOCKTYPE_PCLK2;
 153:Src/main.c    ****   // RCC_ClkInitStruct.SYSCLKSource = RCC_SYSCLKSOURCE_PLLCLK;
 154:Src/main.c    ****   // RCC_ClkInitStruct.AHBCLKDivider = RCC_SYSCLK_DIV1;
 155:Src/main.c    ****   // RCC_ClkInitStruct.APB1CLKDivider = RCC_HCLK_DIV4;
 156:Src/main.c    ****   // RCC_ClkInitStruct.APB2CLKDivider = RCC_HCLK_DIV2;
 157:Src/main.c    **** 
 158:Src/main.c    ****   // if (HAL_RCC_ClockConfig(&RCC_ClkInitStruct, FLASH_LATENCY_5) != HAL_OK)
 159:Src/main.c    ****   // {
 160:Src/main.c    ****   //   _Error_Handler(__FILE__, __LINE__);
 161:Src/main.c    ****   // }
 162:Src/main.c    **** 
 163:Src/main.c    ****   //   /**Configure the Systick interrupt time 
 164:Src/main.c    ****   //   */
 165:Src/main.c    ****   // HAL_SYSTICK_Config(HAL_RCC_GetHCLKFreq()/1000);
 166:Src/main.c    **** 
 167:Src/main.c    ****   //   /**Configure the Systick 
 168:Src/main.c    ****   //   */
 169:Src/main.c    ****   // HAL_SYSTICK_CLKSourceConfig(SYSTICK_CLKSOURCE_HCLK);
 170:Src/main.c    **** 
 171:Src/main.c    ****    /* Reset the RCC clock configuration to the default reset state ------------*/
 172:Src/main.c    ****   /* Set HSION bit */
 173:Src/main.c    ****   RCC->CR |= (uint32_t)0x00000001;
 174:Src/main.c    **** 
 175:Src/main.c    ****   /* Reset CFGR register */
 176:Src/main.c    ****   RCC->CFGR = 0x00000000;
 177:Src/main.c    **** 
 178:Src/main.c    ****   /* Reset HSEON, CSSON and PLLON bits */
 179:Src/main.c    ****   RCC->CR &= (uint32_t)0xFEF6FFFF;
 180:Src/main.c    **** 
 181:Src/main.c    ****   /* Reset PLLCFGR register */
 182:Src/main.c    ****   RCC->PLLCFGR = 0x24003010;
 183:Src/main.c    **** 
 184:Src/main.c    ****   /* Reset HSEBYP bit */
 185:Src/main.c    ****   RCC->CR &= (uint32_t)0xFFFBFFFF;
 186:Src/main.c    **** 
 187:Src/main.c    ****   /* Disable all interrupts */
 188:Src/main.c    ****   RCC->CIR = 0x00000000;
 189:Src/main.c    **** 
 190:Src/main.c    ****   /* SysTick_IRQn interrupt configuration */
 191:Src/main.c    ****   HAL_NVIC_SetPriority(SysTick_IRQn, 0, 0);
 192:Src/main.c    **** }
 193:Src/main.c    **** 
 194:Src/main.c    **** /** Configure pins as 
 195:Src/main.c    ****         * Analog 
 196:Src/main.c    ****         * Input 
 197:Src/main.c    ****         * Output
 198:Src/main.c    ****         * EVENT_OUT
 199:Src/main.c    ****         * EXTI
 200:Src/main.c    **** */
 201:Src/main.c    **** static void MX_GPIO_Init(void)
ARM GAS  /tmp/ccG94fOb.s 			page 5


 202:Src/main.c    **** {
  29              		.loc 1 202 0
  30              		.cfi_startproc
  31              		@ args = 0, pretend = 0, frame = 32
  32              		@ frame_needed = 0, uses_anonymous_args = 0
  33 0000 30B5     		push	{r4, r5, lr}
  34              	.LCFI0:
  35              		.cfi_def_cfa_offset 12
  36              		.cfi_offset 4, -12
  37              		.cfi_offset 5, -8
  38              		.cfi_offset 14, -4
  39 0002 89B0     		sub	sp, sp, #36
  40              	.LCFI1:
  41              		.cfi_def_cfa_offset 48
  42              	.LBB2:
 203:Src/main.c    **** 
 204:Src/main.c    ****   GPIO_InitTypeDef GPIO_InitStruct;
 205:Src/main.c    **** 
 206:Src/main.c    ****   /* GPIO Ports Clock Enable */
 207:Src/main.c    ****   __HAL_RCC_GPIOF_CLK_ENABLE();
  43              		.loc 1 207 0
  44 0004 0024     		movs	r4, #0
  45 0006 0194     		str	r4, [sp, #4]
  46 0008 134B     		ldr	r3, .L3
  47 000a 1A6B     		ldr	r2, [r3, #48]
  48 000c 42F02002 		orr	r2, r2, #32
  49 0010 1A63     		str	r2, [r3, #48]
  50 0012 1A6B     		ldr	r2, [r3, #48]
  51 0014 02F02002 		and	r2, r2, #32
  52 0018 0192     		str	r2, [sp, #4]
  53 001a 019A     		ldr	r2, [sp, #4]
  54              	.LBE2:
  55              	.LBB3:
 208:Src/main.c    ****   __HAL_RCC_GPIOH_CLK_ENABLE();
  56              		.loc 1 208 0
  57 001c 0294     		str	r4, [sp, #8]
  58 001e 1A6B     		ldr	r2, [r3, #48]
  59 0020 42F08002 		orr	r2, r2, #128
  60 0024 1A63     		str	r2, [r3, #48]
  61 0026 1B6B     		ldr	r3, [r3, #48]
  62 0028 03F08003 		and	r3, r3, #128
  63 002c 0293     		str	r3, [sp, #8]
  64 002e 029B     		ldr	r3, [sp, #8]
  65              	.LBE3:
 209:Src/main.c    **** 
 210:Src/main.c    ****   /*Configure GPIO pin Output Level */
 211:Src/main.c    ****   HAL_GPIO_WritePin(GPIOF, GPIO_PIN_10, GPIO_PIN_RESET);
  66              		.loc 1 211 0
  67 0030 0A4D     		ldr	r5, .L3+4
  68 0032 2246     		mov	r2, r4
  69 0034 4FF48061 		mov	r1, #1024
  70 0038 2846     		mov	r0, r5
  71 003a FFF7FEFF 		bl	HAL_GPIO_WritePin
  72              	.LVL0:
 212:Src/main.c    **** 
 213:Src/main.c    ****   /*Configure GPIO pin : PF10 */
 214:Src/main.c    ****   GPIO_InitStruct.Pin = GPIO_PIN_10;
ARM GAS  /tmp/ccG94fOb.s 			page 6


  73              		.loc 1 214 0
  74 003e 4FF48063 		mov	r3, #1024
  75 0042 0393     		str	r3, [sp, #12]
 215:Src/main.c    ****   GPIO_InitStruct.Mode = GPIO_MODE_OUTPUT_PP;
  76              		.loc 1 215 0
  77 0044 0123     		movs	r3, #1
  78 0046 0493     		str	r3, [sp, #16]
 216:Src/main.c    ****   GPIO_InitStruct.Pull = GPIO_NOPULL;
  79              		.loc 1 216 0
  80 0048 0594     		str	r4, [sp, #20]
 217:Src/main.c    ****   GPIO_InitStruct.Speed = GPIO_SPEED_FREQ_LOW;
  81              		.loc 1 217 0
  82 004a 0694     		str	r4, [sp, #24]
 218:Src/main.c    ****   HAL_GPIO_Init(GPIOF, &GPIO_InitStruct);
  83              		.loc 1 218 0
  84 004c 03A9     		add	r1, sp, #12
  85 004e 2846     		mov	r0, r5
  86 0050 FFF7FEFF 		bl	HAL_GPIO_Init
  87              	.LVL1:
 219:Src/main.c    **** 
 220:Src/main.c    **** }
  88              		.loc 1 220 0
  89 0054 09B0     		add	sp, sp, #36
  90              	.LCFI2:
  91              		.cfi_def_cfa_offset 12
  92              		@ sp needed
  93 0056 30BD     		pop	{r4, r5, pc}
  94              	.L4:
  95              		.align	2
  96              	.L3:
  97 0058 00380240 		.word	1073887232
  98 005c 00140240 		.word	1073878016
  99              		.cfi_endproc
 100              	.LFE126:
 102              		.section	.text.SystemClock_Config,"ax",%progbits
 103              		.align	2
 104              		.global	SystemClock_Config
 105              		.thumb
 106              		.thumb_func
 108              	SystemClock_Config:
 109              	.LFB125:
 123:Src/main.c    **** 
 110              		.loc 1 123 0
 111              		.cfi_startproc
 112              		@ args = 0, pretend = 0, frame = 0
 113              		@ frame_needed = 0, uses_anonymous_args = 0
 114 0000 08B5     		push	{r3, lr}
 115              	.LCFI3:
 116              		.cfi_def_cfa_offset 8
 117              		.cfi_offset 3, -8
 118              		.cfi_offset 14, -4
 173:Src/main.c    **** 
 119              		.loc 1 173 0
 120 0002 0D4B     		ldr	r3, .L7
 121 0004 1A68     		ldr	r2, [r3]
 122 0006 42F00102 		orr	r2, r2, #1
 123 000a 1A60     		str	r2, [r3]
ARM GAS  /tmp/ccG94fOb.s 			page 7


 176:Src/main.c    **** 
 124              		.loc 1 176 0
 125 000c 0021     		movs	r1, #0
 126 000e 9960     		str	r1, [r3, #8]
 179:Src/main.c    **** 
 127              		.loc 1 179 0
 128 0010 1A68     		ldr	r2, [r3]
 129 0012 22F08472 		bic	r2, r2, #17301504
 130 0016 22F48032 		bic	r2, r2, #65536
 131 001a 1A60     		str	r2, [r3]
 182:Src/main.c    **** 
 132              		.loc 1 182 0
 133 001c 074A     		ldr	r2, .L7+4
 134 001e 5A60     		str	r2, [r3, #4]
 185:Src/main.c    **** 
 135              		.loc 1 185 0
 136 0020 1A68     		ldr	r2, [r3]
 137 0022 22F48022 		bic	r2, r2, #262144
 138 0026 1A60     		str	r2, [r3]
 188:Src/main.c    **** 
 139              		.loc 1 188 0
 140 0028 D960     		str	r1, [r3, #12]
 191:Src/main.c    **** }
 141              		.loc 1 191 0
 142 002a 0A46     		mov	r2, r1
 143 002c 4FF0FF30 		mov	r0, #-1
 144 0030 FFF7FEFF 		bl	HAL_NVIC_SetPriority
 145              	.LVL2:
 146 0034 08BD     		pop	{r3, pc}
 147              	.L8:
 148 0036 00BF     		.align	2
 149              	.L7:
 150 0038 00380240 		.word	1073887232
 151 003c 10300024 		.word	603992080
 152              		.cfi_endproc
 153              	.LFE125:
 155              		.section	.text.main,"ax",%progbits
 156              		.align	2
 157              		.global	main
 158              		.thumb
 159              		.thumb_func
 161              	main:
 162              	.LFB124:
  73:Src/main.c    ****   /* USER CODE BEGIN 1 */
 163              		.loc 1 73 0
 164              		.cfi_startproc
 165              		@ Volatile: function does not return.
 166              		@ args = 0, pretend = 0, frame = 0
 167              		@ frame_needed = 0, uses_anonymous_args = 0
 168 0000 08B5     		push	{r3, lr}
 169              	.LCFI4:
 170              		.cfi_def_cfa_offset 8
 171              		.cfi_offset 3, -8
 172              		.cfi_offset 14, -4
  81:Src/main.c    **** 
 173              		.loc 1 81 0
 174 0002 FFF7FEFF 		bl	HAL_Init
ARM GAS  /tmp/ccG94fOb.s 			page 8


 175              	.LVL3:
  88:Src/main.c    **** 
 176              		.loc 1 88 0
 177 0006 FFF7FEFF 		bl	SystemClock_Config
 178              	.LVL4:
  95:Src/main.c    ****   /* USER CODE BEGIN 2 */
 179              		.loc 1 95 0
 180 000a FFF7FEFF 		bl	MX_GPIO_Init
 181              	.LVL5:
 182              	.L10:
 106:Src/main.c    **** 		HAL_Delay(500);
 183              		.loc 1 106 0 discriminator 1
 184 000e 0B4C     		ldr	r4, .L12
 185 0010 0122     		movs	r2, #1
 186 0012 4FF48061 		mov	r1, #1024
 187 0016 2046     		mov	r0, r4
 188 0018 FFF7FEFF 		bl	HAL_GPIO_WritePin
 189              	.LVL6:
 107:Src/main.c    **** 		HAL_GPIO_WritePin(GPIOF, GPIO_PIN_10, GPIO_PIN_RESET);
 190              		.loc 1 107 0 discriminator 1
 191 001c 4FF4FA70 		mov	r0, #500
 192 0020 FFF7FEFF 		bl	HAL_Delay
 193              	.LVL7:
 108:Src/main.c    **** 		HAL_Delay(500);
 194              		.loc 1 108 0 discriminator 1
 195 0024 0022     		movs	r2, #0
 196 0026 4FF48061 		mov	r1, #1024
 197 002a 2046     		mov	r0, r4
 198 002c FFF7FEFF 		bl	HAL_GPIO_WritePin
 199              	.LVL8:
 109:Src/main.c    **** 
 200              		.loc 1 109 0 discriminator 1
 201 0030 4FF4FA70 		mov	r0, #500
 202 0034 FFF7FEFF 		bl	HAL_Delay
 203              	.LVL9:
 204 0038 E9E7     		b	.L10
 205              	.L13:
 206 003a 00BF     		.align	2
 207              	.L12:
 208 003c 00140240 		.word	1073878016
 209              		.cfi_endproc
 210              	.LFE124:
 212              		.section	.text._Error_Handler,"ax",%progbits
 213              		.align	2
 214              		.global	_Error_Handler
 215              		.thumb
 216              		.thumb_func
 218              	_Error_Handler:
 219              	.LFB127:
 221:Src/main.c    **** 
 222:Src/main.c    **** /* USER CODE BEGIN 4 */
 223:Src/main.c    **** 
 224:Src/main.c    **** /* USER CODE END 4 */
 225:Src/main.c    **** 
 226:Src/main.c    **** /**
 227:Src/main.c    ****   * @brief  This function is executed in case of error occurrence.
 228:Src/main.c    ****   * @param  file: The file name as string.
ARM GAS  /tmp/ccG94fOb.s 			page 9


 229:Src/main.c    ****   * @param  line: The line in file as a number.
 230:Src/main.c    ****   * @retval None
 231:Src/main.c    ****   */
 232:Src/main.c    **** void _Error_Handler(char *file, int line)
 233:Src/main.c    **** {
 220              		.loc 1 233 0
 221              		.cfi_startproc
 222              		@ Volatile: function does not return.
 223              		@ args = 0, pretend = 0, frame = 0
 224              		@ frame_needed = 0, uses_anonymous_args = 0
 225              		@ link register save eliminated.
 226              	.LVL10:
 227              	.L15:
 228 0000 FEE7     		b	.L15
 229              		.cfi_endproc
 230              	.LFE127:
 232 0002 00BF     		.text
 233              	.Letext0:
 234              		.file 2 "/home/yur/gcc-arm-none-eabi-5_4-2016q3/arm-none-eabi/include/machine/_default_types.h"
 235              		.file 3 "/home/yur/gcc-arm-none-eabi-5_4-2016q3/arm-none-eabi/include/sys/_stdint.h"
 236              		.file 4 "Drivers/CMSIS/Device/ST/STM32F4xx/Include/stm32f407xx.h"
 237              		.file 5 "Drivers/STM32F4xx_HAL_Driver/Inc/stm32f4xx_hal_gpio.h"
 238              		.file 6 "Drivers/STM32F4xx_HAL_Driver/Inc/stm32f4xx_hal_cortex.h"
 239              		.file 7 "Drivers/STM32F4xx_HAL_Driver/Inc/stm32f4xx_hal.h"
 240              		.file 8 "Drivers/CMSIS/Include/core_cm4.h"
ARM GAS  /tmp/ccG94fOb.s 			page 10

